target datalayout = "e-m:e-p270:32:32-p271:32:32-p272:64:64-i64:64-i128:128-f80:128-n8:16:32:64-S128"
target triple = "x86_64-pc-linux-gnu"

%struct.CheckpointStatsData = type { i64, i64, i64, i64, i64, i32, i32, i32, i32, i32, i32, i64, i64 }
%struct.PgStat_CheckpointerStats = type { i64, i64, i64, i64, i64, i64, i64, i64, i64, i64, i64 }
%struct.FullTransactionId = type { i64 }
%struct.CheckPoint = type { i64, i32, i32, i8, i32, %struct.FullTransactionId, i32, i32, i32, i32, i32, i32, i32, i64, i32, i32, i32 }
%struct.ControlFileData = type { i64, i32, i32, i32, i64, i64, %struct.CheckPoint, i64, i64, i32, i64, i64, i8, i32, i8, i32, i32, i32, i32, i32, i8, i32, double, i32, i32, i32, i32, i32, i32, i32, i32, i8, i32, [32 x i8], i32 }

@log_checkpoints = dso_local global i8 1, align 1
@.str.14 = private unnamed_addr constant [7 x i8] c"xlog.c\00", align 1
@ControlFile = internal global ptr null, align 8
@CheckpointStats = dso_local global %struct.CheckpointStatsData zeroinitializer, align 8
@NBuffers = external global i32, align 4
@PrevCheckPointDistance = internal global double 0.000000e+00, align 8
@CheckPointDistanceEstimate = internal global double 0.000000e+00, align 8
@PendingCheckpointerStats = external global %struct.PgStat_CheckpointerStats, align 8
@__func__.LogCheckpointEnd = private unnamed_addr constant [17 x i8] c"LogCheckpointEnd\00", align 1

; Function Attrs: nounwind uwtable
define internal void @LogCheckpointEnd(i1 noundef zeroext %0) #0 {
  %2 = alloca i8, align 1
  %3 = alloca i64, align 8
  %4 = alloca i64, align 8
  %5 = alloca i64, align 8
  %6 = alloca i64, align 8
  %7 = alloca i64, align 8
  %8 = alloca i64, align 8
  %9 = alloca i32, align 4
  %10 = alloca i32, align 4
  %11 = alloca i32, align 4
  %12 = alloca i32, align 4
  %13 = alloca i32, align 4
  %14 = zext i1 %0 to i8
  store i8 %14, ptr %2, align 1
  call void @llvm.lifetime.start.p0(i64 8, ptr %3) #16
  call void @llvm.lifetime.start.p0(i64 8, ptr %4) #16
  call void @llvm.lifetime.start.p0(i64 8, ptr %5) #16
  call void @llvm.lifetime.start.p0(i64 8, ptr %6) #16
  call void @llvm.lifetime.start.p0(i64 8, ptr %7) #16
  call void @llvm.lifetime.start.p0(i64 8, ptr %8) #16
  %15 = call i64 @GetCurrentTimestamp()
  store i64 %15, ptr getelementptr inbounds nuw (%struct.CheckpointStatsData, ptr @CheckpointStats, i32 0, i32 4), align 8
  %16 = load i64, ptr getelementptr inbounds nuw (%struct.CheckpointStatsData, ptr @CheckpointStats, i32 0, i32 1), align 8
  %17 = load i64, ptr getelementptr inbounds nuw (%struct.CheckpointStatsData, ptr @CheckpointStats, i32 0, i32 2), align 8
  %18 = call i64 @TimestampDifferenceMilliseconds(i64 noundef %16, i64 noundef %17)
  store i64 %18, ptr %3, align 8
  %19 = load i64, ptr getelementptr inbounds nuw (%struct.CheckpointStatsData, ptr @CheckpointStats, i32 0, i32 2), align 8
  %20 = load i64, ptr getelementptr inbounds nuw (%struct.CheckpointStatsData, ptr @CheckpointStats, i32 0, i32 3), align 8
  %21 = call i64 @TimestampDifferenceMilliseconds(i64 noundef %19, i64 noundef %20)
  store i64 %21, ptr %4, align 8
  %22 = load i64, ptr %3, align 8
  %23 = load i64, ptr getelementptr inbounds nuw (%struct.PgStat_CheckpointerStats, ptr @PendingCheckpointerStats, i32 0, i32 6), align 8
  %24 = add i64 %23, %22
  store i64 %24, ptr getelementptr inbounds nuw (%struct.PgStat_CheckpointerStats, ptr @PendingCheckpointerStats, i32 0, i32 6), align 8
  %25 = load i64, ptr %4, align 8
  %26 = load i64, ptr getelementptr inbounds nuw (%struct.PgStat_CheckpointerStats, ptr @PendingCheckpointerStats, i32 0, i32 7), align 8
  %27 = add i64 %26, %25
  store i64 %27, ptr getelementptr inbounds nuw (%struct.PgStat_CheckpointerStats, ptr @PendingCheckpointerStats, i32 0, i32 7), align 8
  %28 = load i8, ptr @log_checkpoints, align 1, !range !4, !noundef !5
  %29 = trunc i8 %28 to i1
  br i1 %29, label %31, label %30

30:                                               ; preds = %1
  store i32 1, ptr %9, align 4
  br label %212

31:                                               ; preds = %1
  %32 = load i64, ptr @CheckpointStats, align 8
  %33 = load i64, ptr getelementptr inbounds nuw (%struct.CheckpointStatsData, ptr @CheckpointStats, i32 0, i32 4), align 8
  %34 = call i64 @TimestampDifferenceMilliseconds(i64 noundef %32, i64 noundef %33)
  store i64 %34, ptr %5, align 8
  %35 = load i64, ptr getelementptr inbounds nuw (%struct.CheckpointStatsData, ptr @CheckpointStats, i32 0, i32 11), align 8
  %36 = add i64 %35, 999
  %37 = udiv i64 %36, 1000
  store i64 %37, ptr %6, align 8
  store i64 0, ptr %8, align 8
  %38 = load i32, ptr getelementptr inbounds nuw (%struct.CheckpointStatsData, ptr @CheckpointStats, i32 0, i32 10), align 4
  %39 = icmp sgt i32 %38, 0
  br i1 %39, label %40, label %45

40:                                               ; preds = %31
  %41 = load i64, ptr getelementptr inbounds nuw (%struct.CheckpointStatsData, ptr @CheckpointStats, i32 0, i32 12), align 8
  %42 = load i32, ptr getelementptr inbounds nuw (%struct.CheckpointStatsData, ptr @CheckpointStats, i32 0, i32 10), align 4
  %43 = sext i32 %42 to i64
  %44 = udiv i64 %41, %43
  store i64 %44, ptr %8, align 8
  br label %45

45:                                               ; preds = %40, %31
  %46 = load i64, ptr %8, align 8
  %47 = add i64 %46, 999
  %48 = udiv i64 %47, 1000
  store i64 %48, ptr %7, align 8
  %49 = load i8, ptr %2, align 1, !range !4, !noundef !5
  %50 = trunc i8 %49 to i1
  br i1 %50, label %51, label %131

51:                                               ; preds = %45
  br label %52

52:                                               ; preds = %51
  br i1 false, label %53, label %55

53:                                               ; preds = %52
  %54 = call zeroext i1 @errstart_cold(i32 noundef 15, ptr noundef null) #17
  br i1 %54, label %57, label %128

55:                                               ; preds = %52
  %56 = call zeroext i1 @errstart(i32 noundef 15, ptr noundef null)
  br i1 %56, label %57, label %128

57:                                               ; preds = %55, %53
  %58 = load i32, ptr getelementptr inbounds nuw (%struct.CheckpointStatsData, ptr @CheckpointStats, i32 0, i32 5), align 8
  %59 = load i32, ptr getelementptr inbounds nuw (%struct.CheckpointStatsData, ptr @CheckpointStats, i32 0, i32 5), align 8
  %60 = sitofp i32 %59 to double
  %61 = fmul double %60, 1.000000e+02
  %62 = load i32, ptr @NBuffers, align 4
  %63 = sitofp i32 %62 to double
  %64 = fdiv double %61, %63
  %65 = load i32, ptr getelementptr inbounds nuw (%struct.CheckpointStatsData, ptr @CheckpointStats, i32 0, i32 6), align 4
  %66 = load i32, ptr getelementptr inbounds nuw (%struct.CheckpointStatsData, ptr @CheckpointStats, i32 0, i32 7), align 8
  %67 = load i32, ptr getelementptr inbounds nuw (%struct.CheckpointStatsData, ptr @CheckpointStats, i32 0, i32 8), align 4
  %68 = load i32, ptr getelementptr inbounds nuw (%struct.CheckpointStatsData, ptr @CheckpointStats, i32 0, i32 9), align 8
  %69 = load i64, ptr %3, align 8
  %70 = sdiv i64 %69, 1000
  %71 = load i64, ptr %3, align 8
  %72 = srem i64 %71, 1000
  %73 = trunc i64 %72 to i32
  %74 = load i64, ptr %4, align 8
  %75 = sdiv i64 %74, 1000
  %76 = load i64, ptr %4, align 8
  %77 = srem i64 %76, 1000
  %78 = trunc i64 %77 to i32
  %79 = load i64, ptr %5, align 8
  %80 = sdiv i64 %79, 1000
  %81 = load i64, ptr %5, align 8
  %82 = srem i64 %81, 1000
  %83 = trunc i64 %82 to i32
  %84 = load i32, ptr getelementptr inbounds nuw (%struct.CheckpointStatsData, ptr @CheckpointStats, i32 0, i32 10), align 4
  %85 = load i64, ptr %6, align 8
  %86 = sdiv i64 %85, 1000
  %87 = load i64, ptr %6, align 8
  %88 = srem i64 %87, 1000
  %89 = trunc i64 %88 to i32
  %90 = load i64, ptr %7, align 8
  %91 = sdiv i64 %90, 1000
  %92 = load i64, ptr %7, align 8
  %93 = srem i64 %92, 1000
  %94 = trunc i64 %93 to i32
  %95 = load double, ptr @PrevCheckPointDistance, align 8
  %96 = fdiv double %95, 1.024000e+03
  %97 = fptosi double %96 to i32
  %98 = load double, ptr @CheckPointDistanceEstimate, align 8
  %99 = fdiv double %98, 1.024000e+03
  %100 = fptosi double %99 to i32
  br label %101

101:                                              ; preds = %57
  br label %102

102:                                              ; preds = %101
  br label %103

103:                                              ; preds = %102
  store i32 1, ptr %10, align 4
  %104 = load ptr, ptr @ControlFile, align 8
  %105 = getelementptr inbounds nuw %struct.ControlFileData, ptr %104, i32 0, i32 5
  %106 = load i64, ptr %105, align 8
  %107 = lshr i64 %106, 32
  %108 = trunc i64 %107 to i32
  %109 = load ptr, ptr @ControlFile, align 8
  %110 = getelementptr inbounds nuw %struct.ControlFileData, ptr %109, i32 0, i32 5
  %111 = load i64, ptr %110, align 8
  %112 = trunc i64 %111 to i32
  br label %113

113:                                              ; preds = %103
  br label %114

114:                                              ; preds = %113
  br label %115

115:                                              ; preds = %114
  store i32 1, ptr %11, align 4
  %116 = load ptr, ptr @ControlFile, align 8
  %117 = getelementptr inbounds nuw %struct.ControlFileData, ptr %116, i32 0, i32 6
  %118 = getelementptr inbounds nuw %struct.CheckPoint, ptr %117, i32 0, i32 0
  %119 = load i64, ptr %118, align 8
  %120 = lshr i64 %119, 32
  %121 = trunc i64 %120 to i32
  %122 = load ptr, ptr @ControlFile, align 8
  %123 = getelementptr inbounds nuw %struct.ControlFileData, ptr %122, i32 0, i32 6
  %124 = getelementptr inbounds nuw %struct.CheckPoint, ptr %123, i32 0, i32 0
  %125 = load i64, ptr %124, align 8
  %126 = trunc i64 %125 to i32
  %127 = call i32 (ptr, ...) @errmsg(ptr noundef @.str.191, i32 noundef %58, double noundef %64, i32 noundef %65, i32 noundef %66, i32 noundef %67, i32 noundef %68, i64 noundef %70, i32 noundef %73, i64 noundef %75, i32 noundef %78, i64 noundef %80, i32 noundef %83, i32 noundef %84, i64 noundef %86, i32 noundef %89, i64 noundef %91, i32 noundef %94, i32 noundef %97, i32 noundef %100, i32 noundef %108, i32 noundef %112, i32 noundef %121, i32 noundef %126)
  call void @errfinish(ptr noundef @.str.14, i32 noundef 6773, ptr noundef @__func__.LogCheckpointEnd)
  br label %128

128:                                              ; preds = %115, %55, %53
  br label %129

129:                                              ; preds = %128
  br label %130

130:                                              ; preds = %129
  br label %211

131:                                              ; preds = %45
  br label %132

132:                                              ; preds = %131
  br i1 false, label %133, label %135

133:                                              ; preds = %132
  %134 = call zeroext i1 @errstart_cold(i32 noundef 15, ptr noundef null) #17
  br i1 %134, label %137, label %208

135:                                              ; preds = %132
  %136 = call zeroext i1 @errstart(i32 noundef 15, ptr noundef null)
  br i1 %136, label %137, label %208

137:                                              ; preds = %135, %133
  %138 = load i32, ptr getelementptr inbounds nuw (%struct.CheckpointStatsData, ptr @CheckpointStats, i32 0, i32 5), align 8
  %139 = load i32, ptr getelementptr inbounds nuw (%struct.CheckpointStatsData, ptr @CheckpointStats, i32 0, i32 5), align 8
  %140 = sitofp i32 %139 to double
  %141 = fmul double %140, 1.000000e+02
  %142 = load i32, ptr @NBuffers, align 4
  %143 = sitofp i32 %142 to double
  %144 = fdiv double %141, %143
  %145 = load i32, ptr getelementptr inbounds nuw (%struct.CheckpointStatsData, ptr @CheckpointStats, i32 0, i32 6), align 4
  %146 = load i32, ptr getelementptr inbounds nuw (%struct.CheckpointStatsData, ptr @CheckpointStats, i32 0, i32 7), align 8
  %147 = load i32, ptr getelementptr inbounds nuw (%struct.CheckpointStatsData, ptr @CheckpointStats, i32 0, i32 8), align 4
  %148 = load i32, ptr getelementptr inbounds nuw (%struct.CheckpointStatsData, ptr @CheckpointStats, i32 0, i32 9), align 8
  %149 = load i64, ptr %3, align 8
  %150 = sdiv i64 %149, 1000
  %151 = load i64, ptr %3, align 8
  %152 = srem i64 %151, 1000
  %153 = trunc i64 %152 to i32
  %154 = load i64, ptr %4, align 8
  %155 = sdiv i64 %154, 1000
  %156 = load i64, ptr %4, align 8
  %157 = srem i64 %156, 1000
  %158 = trunc i64 %157 to i32
  %159 = load i64, ptr %5, align 8
  %160 = sdiv i64 %159, 1000
  %161 = load i64, ptr %5, align 8
  %162 = srem i64 %161, 1000
  %163 = trunc i64 %162 to i32
  %164 = load i32, ptr getelementptr inbounds nuw (%struct.CheckpointStatsData, ptr @CheckpointStats, i32 0, i32 10), align 4
  %165 = load i64, ptr %6, align 8
  %166 = sdiv i64 %165, 1000
  %167 = load i64, ptr %6, align 8
  %168 = srem i64 %167, 1000
  %169 = trunc i64 %168 to i32
  %170 = load i64, ptr %7, align 8
  %171 = sdiv i64 %170, 1000
  %172 = load i64, ptr %7, align 8
  %173 = srem i64 %172, 1000
  %174 = trunc i64 %173 to i32
  %175 = load double, ptr @PrevCheckPointDistance, align 8
  %176 = fdiv double %175, 1.024000e+03
  %177 = fptosi double %176 to i32
  %178 = load double, ptr @CheckPointDistanceEstimate, align 8
  %179 = fdiv double %178, 1.024000e+03
  %180 = fptosi double %179 to i32
  br label %181

181:                                              ; preds = %137
  br label %182

182:                                              ; preds = %181
  br label %183

183:                                              ; preds = %182
  store i32 1, ptr %12, align 4
  %184 = load ptr, ptr @ControlFile, align 8
  %185 = getelementptr inbounds nuw %struct.ControlFileData, ptr %184, i32 0, i32 5
  %186 = load i64, ptr %185, align 8
  %187 = lshr i64 %186, 32
  %188 = trunc i64 %187 to i32
  %189 = load ptr, ptr @ControlFile, align 8
  %190 = getelementptr inbounds nuw %struct.ControlFileData, ptr %189, i32 0, i32 5
  %191 = load i64, ptr %190, align 8
  %192 = trunc i64 %191 to i32
  br label %193

193:                                              ; preds = %183
  br label %194

194:                                              ; preds = %193
  br label %195

195:                                              ; preds = %194
  store i32 1, ptr %13, align 4
  %196 = load ptr, ptr @ControlFile, align 8
  %197 = getelementptr inbounds nuw %struct.ControlFileData, ptr %196, i32 0, i32 6
  %198 = getelementptr inbounds nuw %struct.CheckPoint, ptr %197, i32 0, i32 0
  %199 = load i64, ptr %198, align 8
  %200 = lshr i64 %199, 32
  %201 = trunc i64 %200 to i32
  %202 = load ptr, ptr @ControlFile, align 8
  %203 = getelementptr inbounds nuw %struct.ControlFileData, ptr %202, i32 0, i32 6
  %204 = getelementptr inbounds nuw %struct.CheckPoint, ptr %203, i32 0, i32 0
  %205 = load i64, ptr %204, align 8
  %206 = trunc i64 %205 to i32
  %207 = call i32 (ptr, ...) @errmsg(ptr noundef @.str.192, i32 noundef %138, double noundef %144, i32 noundef %145, i32 noundef %146, i32 noundef %147, i32 noundef %148, i64 noundef %150, i32 noundef %153, i64 noundef %155, i32 noundef %158, i64 noundef %160, i32 noundef %163, i32 noundef %164, i64 noundef %166, i32 noundef %169, i64 noundef %171, i32 noundef %174, i32 noundef %177, i32 noundef %180, i32 noundef %188, i32 noundef %192, i32 noundef %201, i32 noundef %206)
  call void @errfinish(ptr noundef @.str.14, i32 noundef 6797, ptr noundef @__func__.LogCheckpointEnd)
  br label %208

208:                                              ; preds = %195, %135, %133
  br label %209

209:                                              ; preds = %208
  br label %210

210:                                              ; preds = %209
  br label %211

211:                                              ; preds = %210, %130
  store i32 0, ptr %9, align 4
  br label %212

212:                                              ; preds = %211, %30
  call void @llvm.lifetime.end.p0(i64 8, ptr %8) #16
  call void @llvm.lifetime.end.p0(i64 8, ptr %7) #16
  call void @llvm.lifetime.end.p0(i64 8, ptr %6) #16
  call void @llvm.lifetime.end.p0(i64 8, ptr %5) #16
  call void @llvm.lifetime.end.p0(i64 8, ptr %4) #16
  call void @llvm.lifetime.end.p0(i64 8, ptr %3) #16
  %213 = load i32, ptr %9, align 4
  switch i32 %213, label %215 [
    i32 0, label %214
    i32 1, label %214
  ]

214:                                              ; preds = %212, %212
  ret void

215:                                              ; preds = %212
  unreachable
}