; Function Attrs: nounwind uwtable
define internal fastcc void @LogCheckpointEnd(i1 noundef zeroext %0) unnamed_addr #0 {
  %2 = tail call i64 @GetCurrentTimestamp() #26
  store i64 %2, ptr getelementptr inbounds nuw (i8, ptr @CheckpointStats, i64 32), align 8
  %3 = load i64, ptr getelementptr inbounds nuw (i8, ptr @CheckpointStats, i64 8), align 8
  %4 = load i64, ptr getelementptr inbounds nuw (i8, ptr @CheckpointStats, i64 16), align 8
  %5 = tail call i64 @TimestampDifferenceMilliseconds(i64 noundef %3, i64 noundef %4) #26
  %6 = load i64, ptr getelementptr inbounds nuw (i8, ptr @CheckpointStats, i64 16), align 8
  %7 = load i64, ptr getelementptr inbounds nuw (i8, ptr @CheckpointStats, i64 24), align 8
  %8 = tail call i64 @TimestampDifferenceMilliseconds(i64 noundef %6, i64 noundef %7) #26
  %9 = load i64, ptr getelementptr inbounds nuw (i8, ptr @PendingCheckpointerStats, i64 48), align 8
  %10 = add i64 %9, %5
  store i64 %10, ptr getelementptr inbounds nuw (i8, ptr @PendingCheckpointerStats, i64 48), align 8
  %11 = load i64, ptr getelementptr inbounds nuw (i8, ptr @PendingCheckpointerStats, i64 56), align 8
  %12 = add i64 %11, %8
  store i64 %12, ptr getelementptr inbounds nuw (i8, ptr @PendingCheckpointerStats, i64 56), align 8
  %13 = load i8, ptr @log_checkpoints, align 1, !range !4, !noundef !5
  %14 = trunc nuw i8 %13 to i1
  br i1 %14, label %15, label %76

15:                                               ; preds = %1
  %16 = load i64, ptr @CheckpointStats, align 8
  %17 = load i64, ptr getelementptr inbounds nuw (i8, ptr @CheckpointStats, i64 32), align 8
  %18 = tail call i64 @TimestampDifferenceMilliseconds(i64 noundef %16, i64 noundef %17) #26
  %19 = load i64, ptr getelementptr inbounds nuw (i8, ptr @CheckpointStats, i64 64), align 8
  %20 = add i64 %19, 999
  %21 = udiv i64 %20, 1000
  %22 = load i32, ptr getelementptr inbounds nuw (i8, ptr @CheckpointStats, i64 60), align 4
  %23 = icmp sgt i32 %22, 0
  br i1 %23, label %24, label %30

24:                                               ; preds = %15
  %25 = load i64, ptr getelementptr inbounds nuw (i8, ptr @CheckpointStats, i64 72), align 8
  %26 = zext nneg i32 %22 to i64
  %27 = udiv i64 %25, %26
  %28 = add i64 %27, 999
  %29 = udiv i64 %28, 1000
  br label %30

30:                                               ; preds = %24, %15
  %.0 = phi i64 [ %29, %24 ], [ 0, %15 ]
  %31 = tail call zeroext i1 @errstart(i32 noundef 15, ptr noundef null) #26
  br i1 %31, label %.sink.split, label %76

.sink.split:                                      ; preds = %30
  %. = select i1 %0, i32 6773, i32 6797
  %.str.191..str.192 = select i1 %0, ptr @.str.191, ptr @.str.192
  %32 = load i32, ptr getelementptr inbounds nuw (i8, ptr @CheckpointStats, i64 40), align 8
  %33 = sitofp i32 %32 to double
  %34 = fmul double %33, 1.000000e+02
  %35 = load i32, ptr @NBuffers, align 4
  %36 = sitofp i32 %35 to double
  %37 = fdiv double %34, %36
  %38 = load i32, ptr getelementptr inbounds nuw (i8, ptr @CheckpointStats, i64 44), align 4
  %39 = load i32, ptr getelementptr inbounds nuw (i8, ptr @CheckpointStats, i64 48), align 8
  %40 = load i32, ptr getelementptr inbounds nuw (i8, ptr @CheckpointStats, i64 52), align 4
  %41 = load i32, ptr getelementptr inbounds nuw (i8, ptr @CheckpointStats, i64 56), align 8
  %42 = sdiv i64 %5, 1000
  %43 = srem i64 %5, 1000
  %44 = trunc nsw i64 %43 to i32
  %45 = sdiv i64 %8, 1000
  %46 = srem i64 %8, 1000
  %47 = trunc nsw i64 %46 to i32
  %48 = sdiv i64 %18, 1000
  %49 = srem i64 %18, 1000
  %50 = trunc nsw i64 %49 to i32
  %51 = load i32, ptr getelementptr inbounds nuw (i8, ptr @CheckpointStats, i64 60), align 4
  %52 = udiv i64 %20, 1000000
  %53 = urem i64 %21, 1000
  %54 = trunc nuw nsw i64 %53 to i32
  %55 = udiv i64 %.0, 1000
  %56 = urem i64 %.0, 1000
  %57 = trunc nuw nsw i64 %56 to i32
  %58 = load double, ptr @PrevCheckPointDistance, align 8
  %59 = fmul double %58, 0x3F50000000000000
  %60 = fptosi double %59 to i32
  %61 = load double, ptr @CheckPointDistanceEstimate, align 8
  %62 = fmul double %61, 0x3F50000000000000
  %63 = fptosi double %62 to i32
  %64 = load ptr, ptr @ControlFile, align 8
  %65 = getelementptr inbounds nuw i8, ptr %64, i64 32
  %66 = load i64, ptr %65, align 8
  %67 = lshr i64 %66, 32
  %68 = trunc nuw i64 %67 to i32
  %69 = trunc i64 %66 to i32
  %70 = getelementptr inbounds nuw i8, ptr %64, i64 40
  %71 = load i64, ptr %70, align 8
  %72 = lshr i64 %71, 32
  %73 = trunc nuw i64 %72 to i32
  %74 = trunc i64 %71 to i32
  %75 = tail call i32 (ptr, ...) @errmsg(ptr noundef nonnull %.str.191..str.192, i32 noundef %32, double noundef %37, i32 noundef %38, i32 noundef %39, i32 noundef %40, i32 noundef %41, i64 noundef %42, i32 noundef %44, i64 noundef %45, i32 noundef %47, i64 noundef %48, i32 noundef %50, i32 noundef %51, i64 noundef %52, i32 noundef %54, i64 noundef %55, i32 noundef %57, i32 noundef %60, i32 noundef %63, i32 noundef %68, i32 noundef %69, i32 noundef %73, i32 noundef %74) #26
  tail call void @errfinish(ptr noundef nonnull @.str.14, i32 noundef %., ptr noundef nonnull @__func__.LogCheckpointEnd) #26
  br label %76

76:                                               ; preds = %30, %.sink.split, %1
  ret void
}